target datalayout = "e-m:e-p270:32:32-p271:32:32-p272:64:64-i64:64-i128:128-f80:128-n8:16:32:64-S128"
target triple = "x86_64-pc-linux-gnu"

%"class.cv::utils::trace::details::Region" = type <{ ptr, i32, [4 x i8] }>
%"class.std::__cxx11::basic_string" = type { %"struct.std::__cxx11::basic_string<char>::_Alloc_hider", i64, %union.anon }
%"struct.std::__cxx11::basic_string<char>::_Alloc_hider" = type { ptr }
%union.anon = type { i64, [8 x i8] }
%"class.cv::Mat" = type { i32, i32, i32, i32, ptr, ptr, ptr, ptr, ptr, ptr, %"struct.cv::MatSize", %"struct.cv::MatStep" }
%"struct.cv::MatSize" = type { ptr }
%"struct.cv::MatStep" = type { ptr, [2 x i64] }
%"class.cv::Size_" = type { i32, i32 }
%"struct.cv::impl::(anonymous namespace)::CvtHelper.13" = type { %"class.cv::Mat", %"class.cv::Mat", i32, i32, %"class.cv::Size_" }

@.str.11 = private unnamed_addr constant [134 x i8] c"generated/home/dtcxzyw/WorkSpace/Projects/compilers/llvm-opt-benchmark/bench/opencv/opencv/modules/imgproc/src/color_rgb.dispatch.cpp\00", align 1
@.str.26 = private unnamed_addr constant [99 x i8] c"HAL implementation cvtRGBAtoMultipliedRGBA ==> hal_ni_cvtRGBAtoMultipliedRGBA returned %d (0x%08x)\00", align 1
@__func__._ZN2cv3hal23cvtRGBAtoMultipliedRGBAEPKhmPhmii = private unnamed_addr constant [24 x i8] c"cvtRGBAtoMultipliedRGBA\00", align 1

; Function Attrs: mustprogress nounwind uwtable
define linkonce_odr hidden noundef i32 @_Z30hal_ni_cvtRGBAtoMultipliedRGBAPKhmPhmii(ptr noundef %0, i64 noundef %1, ptr noundef %2, i64 noundef %3, i32 noundef %4, i32 noundef %5) #2 comdat {
  %7 = alloca ptr, align 8
  %8 = alloca i64, align 8
  %9 = alloca ptr, align 8
  %10 = alloca i64, align 8
  %11 = alloca i32, align 4
  %12 = alloca i32, align 4
  store ptr %0, ptr %7, align 8
  store i64 %1, ptr %8, align 8
  store ptr %2, ptr %9, align 8
  store i64 %3, ptr %10, align 8
  store i32 %4, ptr %11, align 4
  store i32 %5, ptr %12, align 4
  ret i32 1
}

; Function Attrs: mustprogress nounwind uwtable
define internal void @_ZN2cv4impl12_GLOBAL__N_19CvtHelperINS1_3SetILi4ELin1ELin1EEES4_NS3_ILi0ELin1ELin1EEELNS1_10SizePolicyE4EED2Ev(ptr noundef nonnull align 8 dereferenceable(208) %0) unnamed_addr #2 align 2 {
  %2 = alloca ptr, align 8
  store ptr %0, ptr %2, align 8
  %3 = load ptr, ptr %2, align 8
  %4 = getelementptr inbounds %"struct.cv::impl::(anonymous namespace)::CvtHelper.13", ptr %3, i32 0, i32 1
  call void @_ZN2cv3MatD1Ev(ptr noundef nonnull align 8 dereferenceable(96) %4) #10
  %5 = getelementptr inbounds %"struct.cv::impl::(anonymous namespace)::CvtHelper.13", ptr %3, i32 0, i32 0
  call void @_ZN2cv3MatD1Ev(ptr noundef nonnull align 8 dereferenceable(96) %5) #10
  ret void
}

; Function Attrs: mustprogress uwtable
define void @_ZN2cv3hal23cvtRGBAtoMultipliedRGBAEPKhmPhmii(ptr noundef %0, i64 noundef %1, ptr noundef %2, i64 noundef %3, i32 noundef %4, i32 noundef %5) #0 personality ptr @__gxx_personality_v0 {
  %7 = alloca ptr, align 8
  %8 = alloca i64, align 8
  %9 = alloca ptr, align 8
  %10 = alloca i64, align 8
  %11 = alloca i32, align 4
  %12 = alloca i32, align 4
  %13 = alloca %"class.cv::utils::trace::details::Region", align 8
  %14 = alloca i32, align 4
  %15 = alloca ptr, align 8
  %16 = alloca i32, align 4
  %17 = alloca i32, align 4
  %18 = alloca %"class.std::__cxx11::basic_string", align 8
  store ptr %0, ptr %7, align 8
  store i64 %1, ptr %8, align 8
  store ptr %2, ptr %9, align 8
  store i64 %3, ptr %10, align 8
  store i32 %4, ptr %11, align 4
  store i32 %5, ptr %12, align 4
  call void @_ZN2cv5utils5trace7details6RegionC1ERKNS3_21LocationStaticStorageE(ptr noundef nonnull align 8 dereferenceable(12) %13, ptr noundef nonnull align 8 dereferenceable(32) @_ZZN2cv3hal23cvtRGBAtoMultipliedRGBAEPKhmPhmiiE25__cv_trace_location_fn389)
  %19 = load ptr, ptr %7, align 8
  %20 = load i64, ptr %8, align 8
  %21 = load ptr, ptr %9, align 8
  %22 = load i64, ptr %10, align 8
  %23 = load i32, ptr %11, align 4
  %24 = load i32, ptr %12, align 4
  %25 = invoke noundef i32 @_Z30hal_ni_cvtRGBAtoMultipliedRGBAPKhmPhmii(ptr noundef %19, i64 noundef %20, ptr noundef %21, i64 noundef %22, i32 noundef %23, i32 noundef %24)
          to label %26 unwind label %30

26:                                               ; preds = %6
  store i32 %25, ptr %14, align 4
  %27 = load i32, ptr %14, align 4
  %28 = icmp eq i32 %27, 0
  br i1 %28, label %29, label %34

29:                                               ; preds = %26
  store i32 1, ptr %17, align 4
  br label %55

30:                                               ; preds = %47, %37, %6
  %31 = landingpad { ptr, i32 }
          cleanup
  %32 = extractvalue { ptr, i32 } %31, 0
  store ptr %32, ptr %15, align 8
  %33 = extractvalue { ptr, i32 } %31, 1
  store i32 %33, ptr %16, align 4
  br label %56

34:                                               ; preds = %26
  %35 = load i32, ptr %14, align 4
  %36 = icmp ne i32 %35, 1
  br i1 %36, label %37, label %46

37:                                               ; preds = %34
  %38 = load i32, ptr %14, align 4
  %39 = load i32, ptr %14, align 4
  invoke void (ptr, ptr, ...) @_ZN2cv6formatB5cxx11EPKcz(ptr dead_on_unwind writable sret(%"class.std::__cxx11::basic_string") align 8 %18, ptr noundef @.str.26, i32 noundef %38, i32 noundef %39)
          to label %40 unwind label %30

40:                                               ; preds = %37
  invoke void @_ZN2cv5errorEiRKNSt7__cxx1112basic_stringIcSt11char_traitsIcESaIcEEEPKcS9_i(i32 noundef -3, ptr noundef nonnull align 8 dereferenceable(32) %18, ptr noundef @__func__._ZN2cv3hal23cvtRGBAtoMultipliedRGBAEPKhmPhmii, ptr noundef @.str.11, i32 noundef 391) #11
          to label %41 unwind label %42

41:                                               ; preds = %40
  unreachable

42:                                               ; preds = %40
  %43 = landingpad { ptr, i32 }
          cleanup
  %44 = extractvalue { ptr, i32 } %43, 0
  store ptr %44, ptr %15, align 8
  %45 = extractvalue { ptr, i32 } %43, 1
  store i32 %45, ptr %16, align 4
  call void @_ZNSt7__cxx1112basic_stringIcSt11char_traitsIcESaIcEED1Ev(ptr noundef nonnull align 8 dereferenceable(32) %18) #10
  br label %56

46:                                               ; preds = %34
  br label %47

47:                                               ; preds = %46
  %48 = load ptr, ptr %7, align 8
  %49 = load i64, ptr %8, align 8
  %50 = load ptr, ptr %9, align 8
  %51 = load i64, ptr %10, align 8
  %52 = load i32, ptr %11, align 4
  %53 = load i32, ptr %12, align 4
  invoke void @_ZN2cv3hal12cpu_baseline23cvtRGBAtoMultipliedRGBAEPKhmPhmii(ptr noundef %48, i64 noundef %49, ptr noundef %50, i64 noundef %51, i32 noundef %52, i32 noundef %53)
          to label %54 unwind label %30

54:                                               ; preds = %47
  store i32 1, ptr %17, align 4
  br label %55

55:                                               ; preds = %54, %29
  call void @_ZN2cv5utils5trace7details6RegionD2Ev(ptr noundef nonnull align 8 dereferenceable(12) %13) #10
  ret void

56:                                               ; preds = %42, %30
  call void @_ZN2cv5utils5trace7details6RegionD2Ev(ptr noundef nonnull align 8 dereferenceable(12) %13) #10
  br label %57

57:                                               ; preds = %56
  %58 = load ptr, ptr %15, align 8
  %59 = load i32, ptr %16, align 4
  %60 = insertvalue { ptr, i32 } poison, ptr %58, 0
  %61 = insertvalue { ptr, i32 } %60, i32 %59, 1
  resume { ptr, i32 } %61
}

; Function Attrs: mustprogress nounwind uwtable
define linkonce_odr hidden noundef i64 @_ZNK2cv7MatStepcvmEv(ptr noundef nonnull align 8 dereferenceable(24) %0) #2 comdat align 2 {
  %2 = alloca ptr, align 8
  store ptr %0, ptr %2, align 8
  %3 = load ptr, ptr %2, align 8
  %4 = getelementptr inbounds %"struct.cv::MatStep", ptr %3, i32 0, i32 1
  %5 = getelementptr inbounds [2 x i64], ptr %4, i64 0, i64 0
  %6 = load i64, ptr %5, align 8
  ret i64 %6
}

; Function Attrs: mustprogress uwtable
define hidden void @_ZN2cv18cvtColorRGBA2mRGBAERKNS_11_InputArrayERKNS_12_OutputArrayE(ptr noundef nonnull align 8 dereferenceable(24) %0, ptr noundef nonnull align 8 dereferenceable(24) %1) #0 personality ptr @__gxx_personality_v0 {
  %3 = alloca ptr, align 8
  %4 = alloca ptr, align 8
  %5 = alloca %"struct.cv::impl::(anonymous namespace)::CvtHelper.13", align 8
  %6 = alloca ptr, align 8
  %7 = alloca i32, align 4
  store ptr %0, ptr %3, align 8
  store ptr %1, ptr %4, align 8
  %8 = load ptr, ptr %3, align 8
  %9 = load ptr, ptr %4, align 8
  call void @_ZN2cv4impl12_GLOBAL__N_19CvtHelperINS1_3SetILi4ELin1ELin1EEES4_NS3_ILi0ELin1ELin1EEELNS1_10SizePolicyE4EEC2ERKNS_11_InputArrayERKNS_12_OutputArrayEi(ptr noundef nonnull align 8 dereferenceable(208) %5, ptr noundef nonnull align 8 dereferenceable(24) %8, ptr noundef nonnull align 8 dereferenceable(24) %9, i32 noundef 4)
  %10 = getelementptr inbounds %"struct.cv::impl::(anonymous namespace)::CvtHelper.13", ptr %5, i32 0, i32 0
  %11 = getelementptr inbounds %"class.cv::Mat", ptr %10, i32 0, i32 4
  %12 = load ptr, ptr %11, align 8
  %13 = getelementptr inbounds %"struct.cv::impl::(anonymous namespace)::CvtHelper.13", ptr %5, i32 0, i32 0
  %14 = getelementptr inbounds %"class.cv::Mat", ptr %13, i32 0, i32 11
  %15 = invoke noundef i64 @_ZNK2cv7MatStepcvmEv(ptr noundef nonnull align 8 dereferenceable(24) %14)
          to label %16 unwind label %31

16:                                               ; preds = %2
  %17 = getelementptr inbounds %"struct.cv::impl::(anonymous namespace)::CvtHelper.13", ptr %5, i32 0, i32 1
  %18 = getelementptr inbounds %"class.cv::Mat", ptr %17, i32 0, i32 4
  %19 = load ptr, ptr %18, align 8
  %20 = getelementptr inbounds %"struct.cv::impl::(anonymous namespace)::CvtHelper.13", ptr %5, i32 0, i32 1
  %21 = getelementptr inbounds %"class.cv::Mat", ptr %20, i32 0, i32 11
  %22 = invoke noundef i64 @_ZNK2cv7MatStepcvmEv(ptr noundef nonnull align 8 dereferenceable(24) %21)
          to label %23 unwind label %31

23:                                               ; preds = %16
  %24 = getelementptr inbounds %"struct.cv::impl::(anonymous namespace)::CvtHelper.13", ptr %5, i32 0, i32 0
  %25 = getelementptr inbounds %"class.cv::Mat", ptr %24, i32 0, i32 3
  %26 = load i32, ptr %25, align 4
  %27 = getelementptr inbounds %"struct.cv::impl::(anonymous namespace)::CvtHelper.13", ptr %5, i32 0, i32 0
  %28 = getelementptr inbounds %"class.cv::Mat", ptr %27, i32 0, i32 2
  %29 = load i32, ptr %28, align 8
  invoke void @_ZN2cv3hal23cvtRGBAtoMultipliedRGBAEPKhmPhmii(ptr noundef %12, i64 noundef %15, ptr noundef %19, i64 noundef %22, i32 noundef %26, i32 noundef %29)
          to label %30 unwind label %31

30:                                               ; preds = %23
  call void @_ZN2cv4impl12_GLOBAL__N_19CvtHelperINS1_3SetILi4ELin1ELin1EEES4_NS3_ILi0ELin1ELin1EEELNS1_10SizePolicyE4EED2Ev(ptr noundef nonnull align 8 dereferenceable(208) %5) #10
  ret void

31:                                               ; preds = %23, %16, %2
  %32 = landingpad { ptr, i32 }
          cleanup
  %33 = extractvalue { ptr, i32 } %32, 0
  store ptr %33, ptr %6, align 8
  %34 = extractvalue { ptr, i32 } %32, 1
  store i32 %34, ptr %7, align 4
  call void @_ZN2cv4impl12_GLOBAL__N_19CvtHelperINS1_3SetILi4ELin1ELin1EEES4_NS3_ILi0ELin1ELin1EEELNS1_10SizePolicyE4EED2Ev(ptr noundef nonnull align 8 dereferenceable(208) %5) #10
  br label %35

35:                                               ; preds = %31
  %36 = load ptr, ptr %6, align 8
  %37 = load i32, ptr %7, align 4
  %38 = insertvalue { ptr, i32 } poison, ptr %36, 0
  %39 = insertvalue { ptr, i32 } %38, i32 %37, 1
  resume { ptr, i32 } %39
}