; Function Attrs: mustprogress uwtable
define hidden void @_ZN2cv18cvtColorRGBA2mRGBAERKNS_11_InputArrayERKNS_12_OutputArrayE(ptr noundef nonnull align 8 dereferenceable(24) %0, ptr noundef nonnull align 8 dereferenceable(24) %1) local_unnamed_addr #0 personality ptr @__gxx_personality_v0 {
  %3 = alloca %"class.cv::utils::trace::details::Region", align 8
  %4 = alloca %"struct.cv::impl::(anonymous namespace)::CvtHelper.13", align 8
  call fastcc void @_ZN2cv4impl12_GLOBAL__N_19CvtHelperINS1_3SetILi4ELin1ELin1EEES4_NS3_ILi0ELin1ELin1EEELNS1_10SizePolicyE4EEC2ERKNS_11_InputArrayERKNS_12_OutputArrayEi(ptr noundef nonnull align 8 dereferenceable(208) %4, ptr noundef nonnull align 8 dereferenceable(24) %0, ptr noundef nonnull align 8 dereferenceable(24) %1)
  %5 = getelementptr inbounds i8, ptr %4, i64 16
  %6 = load ptr, ptr %5, align 8
  %7 = getelementptr inbounds i8, ptr %4, i64 80
  %8 = load i64, ptr %7, align 8
  %9 = getelementptr inbounds i8, ptr %4, i64 112
  %10 = load ptr, ptr %9, align 8
  %11 = getelementptr inbounds i8, ptr %4, i64 176
  %12 = load i64, ptr %11, align 8
  %13 = getelementptr inbounds i8, ptr %4, i64 12
  %14 = load i32, ptr %13, align 4
  %15 = getelementptr inbounds i8, ptr %4, i64 8
  %16 = load i32, ptr %15, align 8
  call void @llvm.lifetime.start.p0(i64 16, ptr nonnull %3)
  invoke void @_ZN2cv5utils5trace7details6RegionC1ERKNS3_21LocationStaticStorageE(ptr noundef nonnull align 8 dereferenceable(12) %3, ptr noundef nonnull align 8 dereferenceable(32) @_ZZN2cv3hal23cvtRGBAtoMultipliedRGBAEPKhmPhmiiE25__cv_trace_location_fn389)
          to label %.noexc unwind label %28

.noexc:                                           ; preds = %2
  invoke void @_ZN2cv3hal12cpu_baseline23cvtRGBAtoMultipliedRGBAEPKhmPhmii(ptr noundef %6, i64 noundef %8, ptr noundef %10, i64 noundef %12, i32 noundef %14, i32 noundef %16)
          to label %17 unwind label %24

17:                                               ; preds = %.noexc
  %18 = getelementptr inbounds i8, ptr %3, i64 8
  %19 = load i32, ptr %18, align 8
  %.not.i.i = icmp eq i32 %19, 0
  br i1 %.not.i.i, label %26, label %20

20:                                               ; preds = %17
  invoke void @_ZN2cv5utils5trace7details6Region7destroyEv(ptr noundef nonnull align 8 dereferenceable(12) %3)
          to label %26 unwind label %21

21:                                               ; preds = %20
  %22 = landingpad { ptr, i32 }
          catch ptr null
  %23 = extractvalue { ptr, i32 } %22, 0
  call void @__clang_call_terminate(ptr %23) #13
  unreachable

24:                                               ; preds = %.noexc
  %25 = landingpad { ptr, i32 }
          cleanup
  call void @_ZN2cv5utils5trace7details6RegionD2Ev(ptr noundef nonnull align 8 dereferenceable(12) %3) #11
  br label %.body

26:                                               ; preds = %20, %17
  call void @llvm.lifetime.end.p0(i64 16, ptr nonnull %3)
  %27 = getelementptr inbounds i8, ptr %4, i64 96
  call void @_ZN2cv3MatD1Ev(ptr noundef nonnull align 8 dereferenceable(96) %27) #11
  call void @_ZN2cv3MatD1Ev(ptr noundef nonnull align 8 dereferenceable(96) %4) #11
  ret void

28:                                               ; preds = %2
  %29 = landingpad { ptr, i32 }
          cleanup
  br label %.body

.body:                                            ; preds = %24, %28
  %eh.lpad-body = phi { ptr, i32 } [ %29, %28 ], [ %25, %24 ]
  %30 = getelementptr inbounds i8, ptr %4, i64 96
  call void @_ZN2cv3MatD1Ev(ptr noundef nonnull align 8 dereferenceable(96) %30) #11
  call void @_ZN2cv3MatD1Ev(ptr noundef nonnull align 8 dereferenceable(96) %4) #11
  resume { ptr, i32 } %eh.lpad-body
}